; Function Attrs: inlinehint nounwind uwtable
define internal fastcc ptr @Gia_ManHashAndP(ptr noundef %0, ptr noundef %1, ptr noundef %2) unnamed_addr #7 {
  %4 = getelementptr i8, ptr %0, i64 32
  %.val6 = load ptr, ptr %4, align 8, !tbaa !12
  %5 = ptrtoint ptr %1 to i64
  %6 = and i64 %5, -2
  %7 = ptrtoint ptr %.val6 to i64
  %8 = sub i64 %6, %7
  %9 = sdiv exact i64 %8, 12
  %10 = trunc i64 %9 to i32
  %11 = trunc i64 %5 to i32
  %12 = and i32 %11, 1
  %13 = shl nsw i32 %10, 1
  %14 = or disjoint i32 %13, %12
  %15 = ptrtoint ptr %2 to i64
  %16 = and i64 %15, -2
  %17 = sub i64 %16, %7
  %18 = sdiv exact i64 %17, 12
  %19 = trunc i64 %18 to i32
  %20 = trunc i64 %15 to i32
  %21 = and i32 %20, 1
  %22 = shl nsw i32 %19, 1
  %23 = or disjoint i32 %22, %21
  %24 = tail call i32 @Gia_ManHashAnd(ptr noundef %0, i32 noundef %14, i32 noundef %23)
  %.val7 = load ptr, ptr %4, align 8, !tbaa !12
  %25 = ashr i32 %24, 1
  %26 = sext i32 %25 to i64
  %27 = getelementptr inbounds %struct.Gia_Obj_t_, ptr %.val7, i64 %26
  %28 = and i32 %24, 1
  %29 = ptrtoint ptr %27 to i64
  %30 = zext nneg i32 %28 to i64
  %31 = xor i64 %29, %30
  %32 = inttoptr i64 %31 to ptr
  ret ptr %32
}